target datalayout = "e-m:e-p270:32:32-p271:32:32-p272:64:64-i64:64-i128:128-f80:128-n8:16:32:64-S128"
target triple = "x86_64-pc-linux-gnu"

%struct.nameData = type { [64 x i8] }
%struct.HeapTupleData = type { i32, %struct.ItemPointerData, i32, ptr }
%struct.ItemPointerData = type { %struct.BlockIdData, i16 }
%struct.BlockIdData = type { i16, i16 }
%struct.HeapTupleHeaderData = type { %union.anon, %struct.ItemPointerData, i16, i16, i8, [0 x i8] }
%union.anon = type { %struct.HeapTupleFields }
%struct.HeapTupleFields = type { i32, i32, %union.anon.1 }
%union.anon.1 = type { i32 }
%struct.FormData_pg_opclass = type { i32, i32, %struct.nameData, i32, i32, i32, i32, i8, i32 }

@.str.2 = private unnamed_addr constant [12 x i8] c"ruleutils.c\00", align 1
@.str.231 = private unnamed_addr constant [4 x i8] c" %s\00", align 1
@.str.537 = private unnamed_addr constant [35 x i8] c"cache lookup failed for opclass %u\00", align 1
@__func__.get_opclass_name = private unnamed_addr constant [17 x i8] c"get_opclass_name\00", align 1
@.str.538 = private unnamed_addr constant [7 x i8] c" %s.%s\00", align 1

; Function Attrs: inlinehint nounwind uwtable
define internal ptr @GETSTRUCT(ptr noundef %0) #2 {
  %2 = alloca ptr, align 8
  store ptr %0, ptr %2, align 8
  %3 = load ptr, ptr %2, align 8
  %4 = getelementptr inbounds nuw %struct.HeapTupleData, ptr %3, i32 0, i32 3
  %5 = load ptr, ptr %4, align 8
  %6 = load ptr, ptr %2, align 8
  %7 = getelementptr inbounds nuw %struct.HeapTupleData, ptr %6, i32 0, i32 3
  %8 = load ptr, ptr %7, align 8
  %9 = getelementptr inbounds nuw %struct.HeapTupleHeaderData, ptr %8, i32 0, i32 4
  %10 = load i8, ptr %9, align 2
  %11 = zext i8 %10 to i32
  %12 = sext i32 %11 to i64
  %13 = getelementptr inbounds i8, ptr %5, i64 %12
  ret ptr %13
}

; Function Attrs: inlinehint nounwind uwtable
define internal i64 @ObjectIdGetDatum(i32 noundef %0) #2 {
  %2 = alloca i32, align 4
  store i32 %0, ptr %2, align 4
  %3 = load i32, ptr %2, align 4
  %4 = zext i32 %3 to i64
  ret i64 %4
}

; Function Attrs: nounwind uwtable
define internal void @get_opclass_name(i32 noundef %0, i32 noundef %1, ptr noundef %2) #0 {
  %4 = alloca i32, align 4
  %5 = alloca i32, align 4
  %6 = alloca ptr, align 8
  %7 = alloca ptr, align 8
  %8 = alloca ptr, align 8
  %9 = alloca ptr, align 8
  %10 = alloca ptr, align 8
  store i32 %0, ptr %4, align 4
  store i32 %1, ptr %5, align 4
  store ptr %2, ptr %6, align 8
  call void @llvm.lifetime.start.p0(i64 8, ptr %7) #10
  call void @llvm.lifetime.start.p0(i64 8, ptr %8) #10
  call void @llvm.lifetime.start.p0(i64 8, ptr %9) #10
  call void @llvm.lifetime.start.p0(i64 8, ptr %10) #10
  %11 = load i32, ptr %4, align 4
  %12 = call i64 @ObjectIdGetDatum(i32 noundef %11)
  %13 = call ptr @SearchSysCache1(i32 noundef 14, i64 noundef %12)
  store ptr %13, ptr %7, align 8
  %14 = load ptr, ptr %7, align 8
  %15 = icmp ne ptr %14, null
  br i1 %15, label %28, label %16

16:                                               ; preds = %3
  br label %17

17:                                               ; preds = %16
  br i1 true, label %18, label %20

18:                                               ; preds = %17
  %19 = call zeroext i1 @errstart_cold(i32 noundef 21, ptr noundef null) #11
  br i1 %19, label %22, label %25

20:                                               ; preds = %17
  %21 = call zeroext i1 @errstart(i32 noundef 21, ptr noundef null)
  br i1 %21, label %22, label %25

22:                                               ; preds = %20, %18
  %23 = load i32, ptr %4, align 4
  %24 = call i32 (ptr, ...) @errmsg_internal(ptr noundef @.str.537, i32 noundef %23)
  call void @errfinish(ptr noundef @.str.2, i32 noundef 12782, ptr noundef @__func__.get_opclass_name)
  br label %25

25:                                               ; preds = %22, %20, %18
  unreachable

26:                                               ; No predecessors!
  br label %27

27:                                               ; preds = %26
  br label %28

28:                                               ; preds = %27, %3
  %29 = load ptr, ptr %7, align 8
  %30 = call ptr @GETSTRUCT(ptr noundef %29)
  store ptr %30, ptr %8, align 8
  %31 = load i32, ptr %5, align 4
  %32 = icmp ne i32 %31, 0
  br i1 %32, label %33, label %41

33:                                               ; preds = %28
  %34 = load i32, ptr %5, align 4
  %35 = load ptr, ptr %8, align 8
  %36 = getelementptr inbounds nuw %struct.FormData_pg_opclass, ptr %35, i32 0, i32 1
  %37 = load i32, ptr %36, align 4
  %38 = call i32 @GetDefaultOpClass(i32 noundef %34, i32 noundef %37)
  %39 = load i32, ptr %4, align 4
  %40 = icmp ne i32 %38, %39
  br i1 %40, label %41, label %63

41:                                               ; preds = %33, %28
  %42 = load ptr, ptr %8, align 8
  %43 = getelementptr inbounds nuw %struct.FormData_pg_opclass, ptr %42, i32 0, i32 2
  %44 = getelementptr inbounds nuw %struct.nameData, ptr %43, i32 0, i32 0
  %45 = getelementptr inbounds [64 x i8], ptr %44, i64 0, i64 0
  store ptr %45, ptr %9, align 8
  %46 = load i32, ptr %4, align 4
  %47 = call zeroext i1 @OpclassIsVisible(i32 noundef %46)
  br i1 %47, label %48, label %52

48:                                               ; preds = %41
  %49 = load ptr, ptr %6, align 8
  %50 = load ptr, ptr %9, align 8
  %51 = call ptr @quote_identifier(ptr noundef %50)
  call void (ptr, ptr, ...) @appendStringInfo(ptr noundef %49, ptr noundef @.str.231, ptr noundef %51)
  br label %62

52:                                               ; preds = %41
  %53 = load ptr, ptr %8, align 8
  %54 = getelementptr inbounds nuw %struct.FormData_pg_opclass, ptr %53, i32 0, i32 3
  %55 = load i32, ptr %54, align 4
  %56 = call ptr @get_namespace_name_or_temp(i32 noundef %55)
  store ptr %56, ptr %10, align 8
  %57 = load ptr, ptr %6, align 8
  %58 = load ptr, ptr %10, align 8
  %59 = call ptr @quote_identifier(ptr noundef %58)
  %60 = load ptr, ptr %9, align 8
  %61 = call ptr @quote_identifier(ptr noundef %60)
  call void (ptr, ptr, ...) @appendStringInfo(ptr noundef %57, ptr noundef @.str.538, ptr noundef %59, ptr noundef %61)
  br label %62

62:                                               ; preds = %52, %48
  br label %63

63:                                               ; preds = %62, %33
  %64 = load ptr, ptr %7, align 8
  call void @ReleaseSysCache(ptr noundef %64)
  call void @llvm.lifetime.end.p0(i64 8, ptr %10) #10
  call void @llvm.lifetime.end.p0(i64 8, ptr %9) #10
  call void @llvm.lifetime.end.p0(i64 8, ptr %8) #10
  call void @llvm.lifetime.end.p0(i64 8, ptr %7) #10
  ret void
}