; Function Attrs: nounwind uwtable
define internal fastcc void @get_opclass_name(i32 noundef %0, i32 noundef %1, ptr noundef %2) unnamed_addr #0 {
  %4 = zext i32 %0 to i64
  %5 = tail call ptr @SearchSysCache1(i32 noundef 14, i64 noundef %4) #11
  %.not = icmp eq ptr %5, null
  br i1 %.not, label %6, label %9

6:                                                ; preds = %3
  %7 = tail call zeroext i1 @errstart_cold(i32 noundef 21, ptr noundef null) #12
  tail call void @llvm.assume(i1 %7)
  %8 = tail call i32 (ptr, ...) @errmsg_internal(ptr noundef nonnull @.str.537, i32 noundef %0) #11
  tail call void @errfinish(ptr noundef nonnull @.str.2, i32 noundef 12782, ptr noundef nonnull @__func__.get_opclass_name) #11
  unreachable

9:                                                ; preds = %3
  %10 = getelementptr i8, ptr %5, i64 16
  %.val = load ptr, ptr %10, align 8
  %11 = getelementptr inbounds nuw i8, ptr %.val, i64 22
  %12 = load i8, ptr %11, align 2
  %13 = zext i8 %12 to i64
  %14 = getelementptr inbounds nuw i8, ptr %.val, i64 %13
  %.not17 = icmp eq i32 %1, 0
  br i1 %.not17, label %19, label %15

15:                                               ; preds = %9
  %16 = getelementptr inbounds nuw i8, ptr %14, i64 4
  %17 = load i32, ptr %16, align 4
  %18 = tail call i32 @GetDefaultOpClass(i32 noundef %1, i32 noundef %17) #11
  %.not18 = icmp eq i32 %18, %0
  br i1 %.not18, label %30, label %19

19:                                               ; preds = %15, %9
  %20 = getelementptr inbounds nuw i8, ptr %14, i64 8
  %21 = tail call zeroext i1 @OpclassIsVisible(i32 noundef %0) #11
  br i1 %21, label %22, label %24

22:                                               ; preds = %19
  %23 = tail call ptr @quote_identifier(ptr noundef nonnull %20)
  tail call void (ptr, ptr, ...) @appendStringInfo(ptr noundef %2, ptr noundef nonnull @.str.231, ptr noundef %23) #11
  br label %30

24:                                               ; preds = %19
  %25 = getelementptr inbounds nuw i8, ptr %14, i64 72
  %26 = load i32, ptr %25, align 4
  %27 = tail call ptr @get_namespace_name_or_temp(i32 noundef %26) #11
  %28 = tail call ptr @quote_identifier(ptr noundef %27)
  %29 = tail call ptr @quote_identifier(ptr noundef nonnull %20)
  tail call void (ptr, ptr, ...) @appendStringInfo(ptr noundef %2, ptr noundef nonnull @.str.538, ptr noundef %28, ptr noundef %29) #11
  br label %30

30:                                               ; preds = %22, %24, %15
  tail call void @ReleaseSysCache(ptr noundef nonnull %5) #11
  ret void
}